target datalayout = "e-m:e-p270:32:32-p271:32:32-p272:64:64-i64:64-i128:128-f80:128-n8:16:32:64-S128"
target triple = "x86_64-pc-linux-gnu"

%struct.pcre2_memctl = type { ptr, ptr, ptr }
%struct.sljit_compiler = type { i32, i32, ptr, ptr, ptr, ptr, ptr, ptr, ptr, ptr, ptr, ptr, ptr, ptr, i32, i32, i32, i32, i32, i64, i64, i64, i32 }
%struct.sljit_memory_fragment = type { ptr, i64, [1 x i8] }
%struct.sljit_jump = type { ptr, i64, i64, %union.anon.0 }
%union.anon.0 = type { i64 }

; Function Attrs: nounwind uwtable
define internal ptr @pcre2_jit_malloc(i64 noundef %0, ptr noundef %1) #0 {
  %3 = alloca i64, align 8
  %4 = alloca ptr, align 8
  %5 = alloca ptr, align 8
  store i64 %0, ptr %3, align 8
  store ptr %1, ptr %4, align 8
  %6 = load ptr, ptr %4, align 8
  store ptr %6, ptr %5, align 8
  %7 = load ptr, ptr %5, align 8
  %8 = getelementptr inbounds %struct.pcre2_memctl, ptr %7, i32 0, i32 0
  %9 = load ptr, ptr %8, align 8
  %10 = load i64, ptr %3, align 8
  %11 = load ptr, ptr %5, align 8
  %12 = getelementptr inbounds %struct.pcre2_memctl, ptr %11, i32 0, i32 2
  %13 = load ptr, ptr %12, align 8
  %14 = call ptr %9(i64 noundef %10, ptr noundef %13)
  ret ptr %14
}

; Function Attrs: nounwind uwtable
define internal ptr @ensure_buf(ptr noundef %0, i64 noundef %1) #0 {
  %3 = alloca ptr, align 8
  %4 = alloca ptr, align 8
  %5 = alloca i64, align 8
  %6 = alloca ptr, align 8
  %7 = alloca ptr, align 8
  store ptr %0, ptr %4, align 8
  store i64 %1, ptr %5, align 8
  br label %8

8:                                                ; preds = %2
  br label %9

9:                                                ; preds = %8
  %10 = load ptr, ptr %4, align 8
  %11 = getelementptr inbounds %struct.sljit_compiler, ptr %10, i32 0, i32 12
  %12 = load ptr, ptr %11, align 8
  %13 = getelementptr inbounds %struct.sljit_memory_fragment, ptr %12, i32 0, i32 1
  %14 = load i64, ptr %13, align 8
  %15 = load i64, ptr %5, align 8
  %16 = add i64 %14, %15
  %17 = icmp ule i64 %16, sub (i64 4096, i64 sub nsw (i64 ptrtoint (ptr getelementptr inbounds (%struct.sljit_memory_fragment, ptr inttoptr (i64 16 to ptr), i32 0, i32 2) to i64), i64 16))
  br i1 %17, label %18, label %38

18:                                               ; preds = %9
  %19 = load ptr, ptr %4, align 8
  %20 = getelementptr inbounds %struct.sljit_compiler, ptr %19, i32 0, i32 12
  %21 = load ptr, ptr %20, align 8
  %22 = getelementptr inbounds %struct.sljit_memory_fragment, ptr %21, i32 0, i32 2
  %23 = getelementptr inbounds [1 x i8], ptr %22, i64 0, i64 0
  %24 = load ptr, ptr %4, align 8
  %25 = getelementptr inbounds %struct.sljit_compiler, ptr %24, i32 0, i32 12
  %26 = load ptr, ptr %25, align 8
  %27 = getelementptr inbounds %struct.sljit_memory_fragment, ptr %26, i32 0, i32 1
  %28 = load i64, ptr %27, align 8
  %29 = getelementptr inbounds i8, ptr %23, i64 %28
  store ptr %29, ptr %6, align 8
  %30 = load i64, ptr %5, align 8
  %31 = load ptr, ptr %4, align 8
  %32 = getelementptr inbounds %struct.sljit_compiler, ptr %31, i32 0, i32 12
  %33 = load ptr, ptr %32, align 8
  %34 = getelementptr inbounds %struct.sljit_memory_fragment, ptr %33, i32 0, i32 1
  %35 = load i64, ptr %34, align 8
  %36 = add i64 %35, %30
  store i64 %36, ptr %34, align 8
  %37 = load ptr, ptr %6, align 8
  store ptr %37, ptr %3, align 8
  br label %69

38:                                               ; preds = %9
  %39 = load ptr, ptr %4, align 8
  %40 = getelementptr inbounds %struct.sljit_compiler, ptr %39, i32 0, i32 10
  %41 = load ptr, ptr %40, align 8
  %42 = call ptr @pcre2_jit_malloc(i64 noundef 4096, ptr noundef %41)
  store ptr %42, ptr %7, align 8
  br label %43

43:                                               ; preds = %38
  %44 = load ptr, ptr %7, align 8
  %45 = icmp ne ptr %44, null
  %46 = xor i1 %45, true
  %47 = zext i1 %46 to i32
  %48 = sext i32 %47 to i64
  %49 = icmp ne i64 %48, 0
  br i1 %49, label %50, label %53

50:                                               ; preds = %43
  %51 = load ptr, ptr %4, align 8
  %52 = getelementptr inbounds %struct.sljit_compiler, ptr %51, i32 0, i32 0
  store i32 2, ptr %52, align 8
  store ptr null, ptr %3, align 8
  br label %69

53:                                               ; preds = %43
  br label %54

54:                                               ; preds = %53
  %55 = load ptr, ptr %4, align 8
  %56 = getelementptr inbounds %struct.sljit_compiler, ptr %55, i32 0, i32 12
  %57 = load ptr, ptr %56, align 8
  %58 = load ptr, ptr %7, align 8
  %59 = getelementptr inbounds %struct.sljit_memory_fragment, ptr %58, i32 0, i32 0
  store ptr %57, ptr %59, align 8
  %60 = load ptr, ptr %7, align 8
  %61 = load ptr, ptr %4, align 8
  %62 = getelementptr inbounds %struct.sljit_compiler, ptr %61, i32 0, i32 12
  store ptr %60, ptr %62, align 8
  %63 = load i64, ptr %5, align 8
  %64 = load ptr, ptr %7, align 8
  %65 = getelementptr inbounds %struct.sljit_memory_fragment, ptr %64, i32 0, i32 1
  store i64 %63, ptr %65, align 8
  %66 = load ptr, ptr %7, align 8
  %67 = getelementptr inbounds %struct.sljit_memory_fragment, ptr %66, i32 0, i32 2
  %68 = getelementptr inbounds [1 x i8], ptr %67, i64 0, i64 0
  store ptr %68, ptr %3, align 8
  br label %69

69:                                               ; preds = %54, %50, %18
  %70 = load ptr, ptr %3, align 8
  ret ptr %70
}

; Function Attrs: nounwind uwtable
define internal void @set_jump(ptr noundef %0, ptr noundef %1, i32 noundef %2) #0 {
  %4 = alloca ptr, align 8
  %5 = alloca ptr, align 8
  %6 = alloca i32, align 4
  store ptr %0, ptr %4, align 8
  store ptr %1, ptr %5, align 8
  store i32 %2, ptr %6, align 4
  %7 = load ptr, ptr %4, align 8
  %8 = getelementptr inbounds %struct.sljit_jump, ptr %7, i32 0, i32 0
  store ptr null, ptr %8, align 8
  %9 = load i32, ptr %6, align 4
  %10 = zext i32 %9 to i64
  %11 = load ptr, ptr %4, align 8
  %12 = getelementptr inbounds %struct.sljit_jump, ptr %11, i32 0, i32 2
  store i64 %10, ptr %12, align 8
  %13 = load ptr, ptr %5, align 8
  %14 = getelementptr inbounds %struct.sljit_compiler, ptr %13, i32 0, i32 7
  %15 = load ptr, ptr %14, align 8
  %16 = icmp ne ptr %15, null
  br i1 %16, label %17, label %23

17:                                               ; preds = %3
  %18 = load ptr, ptr %4, align 8
  %19 = load ptr, ptr %5, align 8
  %20 = getelementptr inbounds %struct.sljit_compiler, ptr %19, i32 0, i32 7
  %21 = load ptr, ptr %20, align 8
  %22 = getelementptr inbounds %struct.sljit_jump, ptr %21, i32 0, i32 0
  store ptr %18, ptr %22, align 8
  br label %27

23:                                               ; preds = %3
  %24 = load ptr, ptr %4, align 8
  %25 = load ptr, ptr %5, align 8
  %26 = getelementptr inbounds %struct.sljit_compiler, ptr %25, i32 0, i32 3
  store ptr %24, ptr %26, align 8
  br label %27

27:                                               ; preds = %23, %17
  %28 = load ptr, ptr %4, align 8
  %29 = load ptr, ptr %5, align 8
  %30 = getelementptr inbounds %struct.sljit_compiler, ptr %29, i32 0, i32 7
  store ptr %28, ptr %30, align 8
  ret void
}

; Function Attrs: nounwind uwtable
define internal ptr @ensure_abuf(ptr noundef %0, i64 noundef %1) #0 {
  %3 = alloca ptr, align 8
  %4 = alloca ptr, align 8
  %5 = alloca i64, align 8
  %6 = alloca ptr, align 8
  %7 = alloca ptr, align 8
  store ptr %0, ptr %4, align 8
  store i64 %1, ptr %5, align 8
  br label %8

8:                                                ; preds = %2
  br label %9

9:                                                ; preds = %8
  %10 = load ptr, ptr %4, align 8
  %11 = getelementptr inbounds %struct.sljit_compiler, ptr %10, i32 0, i32 13
  %12 = load ptr, ptr %11, align 8
  %13 = getelementptr inbounds %struct.sljit_memory_fragment, ptr %12, i32 0, i32 1
  %14 = load i64, ptr %13, align 8
  %15 = load i64, ptr %5, align 8
  %16 = add i64 %14, %15
  %17 = icmp ule i64 %16, sub (i64 4096, i64 sub nsw (i64 ptrtoint (ptr getelementptr inbounds (%struct.sljit_memory_fragment, ptr inttoptr (i64 16 to ptr), i32 0, i32 2) to i64), i64 16))
  br i1 %17, label %18, label %38

18:                                               ; preds = %9
  %19 = load ptr, ptr %4, align 8
  %20 = getelementptr inbounds %struct.sljit_compiler, ptr %19, i32 0, i32 13
  %21 = load ptr, ptr %20, align 8
  %22 = getelementptr inbounds %struct.sljit_memory_fragment, ptr %21, i32 0, i32 2
  %23 = getelementptr inbounds [1 x i8], ptr %22, i64 0, i64 0
  %24 = load ptr, ptr %4, align 8
  %25 = getelementptr inbounds %struct.sljit_compiler, ptr %24, i32 0, i32 13
  %26 = load ptr, ptr %25, align 8
  %27 = getelementptr inbounds %struct.sljit_memory_fragment, ptr %26, i32 0, i32 1
  %28 = load i64, ptr %27, align 8
  %29 = getelementptr inbounds i8, ptr %23, i64 %28
  store ptr %29, ptr %6, align 8
  %30 = load i64, ptr %5, align 8
  %31 = load ptr, ptr %4, align 8
  %32 = getelementptr inbounds %struct.sljit_compiler, ptr %31, i32 0, i32 13
  %33 = load ptr, ptr %32, align 8
  %34 = getelementptr inbounds %struct.sljit_memory_fragment, ptr %33, i32 0, i32 1
  %35 = load i64, ptr %34, align 8
  %36 = add i64 %35, %30
  store i64 %36, ptr %34, align 8
  %37 = load ptr, ptr %6, align 8
  store ptr %37, ptr %3, align 8
  br label %69

38:                                               ; preds = %9
  %39 = load ptr, ptr %4, align 8
  %40 = getelementptr inbounds %struct.sljit_compiler, ptr %39, i32 0, i32 10
  %41 = load ptr, ptr %40, align 8
  %42 = call ptr @pcre2_jit_malloc(i64 noundef 4096, ptr noundef %41)
  store ptr %42, ptr %7, align 8
  br label %43

43:                                               ; preds = %38
  %44 = load ptr, ptr %7, align 8
  %45 = icmp ne ptr %44, null
  %46 = xor i1 %45, true
  %47 = zext i1 %46 to i32
  %48 = sext i32 %47 to i64
  %49 = icmp ne i64 %48, 0
  br i1 %49, label %50, label %53

50:                                               ; preds = %43
  %51 = load ptr, ptr %4, align 8
  %52 = getelementptr inbounds %struct.sljit_compiler, ptr %51, i32 0, i32 0
  store i32 2, ptr %52, align 8
  store ptr null, ptr %3, align 8
  br label %69

53:                                               ; preds = %43
  br label %54

54:                                               ; preds = %53
  %55 = load ptr, ptr %4, align 8
  %56 = getelementptr inbounds %struct.sljit_compiler, ptr %55, i32 0, i32 13
  %57 = load ptr, ptr %56, align 8
  %58 = load ptr, ptr %7, align 8
  %59 = getelementptr inbounds %struct.sljit_memory_fragment, ptr %58, i32 0, i32 0
  store ptr %57, ptr %59, align 8
  %60 = load ptr, ptr %7, align 8
  %61 = load ptr, ptr %4, align 8
  %62 = getelementptr inbounds %struct.sljit_compiler, ptr %61, i32 0, i32 13
  store ptr %60, ptr %62, align 8
  %63 = load i64, ptr %5, align 8
  %64 = load ptr, ptr %7, align 8
  %65 = getelementptr inbounds %struct.sljit_memory_fragment, ptr %64, i32 0, i32 1
  store i64 %63, ptr %65, align 8
  %66 = load ptr, ptr %7, align 8
  %67 = getelementptr inbounds %struct.sljit_memory_fragment, ptr %66, i32 0, i32 2
  %68 = getelementptr inbounds [1 x i8], ptr %67, i64 0, i64 0
  store ptr %68, ptr %3, align 8
  br label %69

69:                                               ; preds = %54, %50, %18
  %70 = load ptr, ptr %3, align 8
  ret ptr %70
}

; Function Attrs: nounwind uwtable
define internal ptr @sljit_emit_jump(ptr noundef %0, i32 noundef %1) #0 {
  %3 = alloca ptr, align 8
  %4 = alloca ptr, align 8
  %5 = alloca i32, align 4
  %6 = alloca ptr, align 8
  %7 = alloca ptr, align 8
  store ptr %0, ptr %4, align 8
  store i32 %1, ptr %5, align 4
  br label %8

8:                                                ; preds = %2
  %9 = load ptr, ptr %4, align 8
  %10 = getelementptr inbounds %struct.sljit_compiler, ptr %9, i32 0, i32 0
  %11 = load i32, ptr %10, align 8
  %12 = sext i32 %11 to i64
  %13 = icmp ne i64 %12, 0
  br i1 %13, label %14, label %15

14:                                               ; preds = %8
  store ptr null, ptr %3, align 8
  br label %68

15:                                               ; preds = %8
  br label %16

16:                                               ; preds = %15
  %17 = load ptr, ptr %4, align 8
  %18 = call ptr @ensure_abuf(ptr noundef %17, i64 noundef 32)
  store ptr %18, ptr %7, align 8
  br label %19

19:                                               ; preds = %16
  %20 = load ptr, ptr %7, align 8
  %21 = icmp ne ptr %20, null
  %22 = xor i1 %21, true
  %23 = zext i1 %22 to i32
  %24 = sext i32 %23 to i64
  %25 = icmp ne i64 %24, 0
  br i1 %25, label %26, label %29

26:                                               ; preds = %19
  %27 = load ptr, ptr %4, align 8
  %28 = getelementptr inbounds %struct.sljit_compiler, ptr %27, i32 0, i32 0
  store i32 2, ptr %28, align 8
  store ptr null, ptr %3, align 8
  br label %68

29:                                               ; preds = %19
  br label %30

30:                                               ; preds = %29
  %31 = load ptr, ptr %7, align 8
  %32 = load ptr, ptr %4, align 8
  %33 = load i32, ptr %5, align 4
  %34 = and i32 %33, 4096
  %35 = load i32, ptr %5, align 4
  %36 = and i32 %35, 255
  %37 = shl i32 %36, 13
  %38 = or i32 %34, %37
  call void @set_jump(ptr noundef %31, ptr noundef %32, i32 noundef %38)
  %39 = load i32, ptr %5, align 4
  %40 = and i32 %39, 255
  store i32 %40, ptr %5, align 4
  %41 = load i32, ptr %5, align 4
  %42 = icmp sge i32 %41, 36
  %43 = select i1 %42, i32 13, i32 15
  %44 = sext i32 %43 to i64
  %45 = load ptr, ptr %4, align 8
  %46 = getelementptr inbounds %struct.sljit_compiler, ptr %45, i32 0, i32 19
  %47 = load i64, ptr %46, align 8
  %48 = add i64 %47, %44
  store i64 %48, ptr %46, align 8
  %49 = load ptr, ptr %4, align 8
  %50 = call ptr @ensure_buf(ptr noundef %49, i64 noundef 2)
  store ptr %50, ptr %6, align 8
  br label %51

51:                                               ; preds = %30
  %52 = load ptr, ptr %6, align 8
  %53 = icmp ne ptr %52, null
  %54 = xor i1 %53, true
  %55 = zext i1 %54 to i32
  %56 = sext i32 %55 to i64
  %57 = icmp ne i64 %56, 0
  br i1 %57, label %58, label %61

58:                                               ; preds = %51
  %59 = load ptr, ptr %4, align 8
  %60 = getelementptr inbounds %struct.sljit_compiler, ptr %59, i32 0, i32 0
  store i32 2, ptr %60, align 8
  store ptr null, ptr %3, align 8
  br label %68

61:                                               ; preds = %51
  br label %62

62:                                               ; preds = %61
  %63 = load ptr, ptr %6, align 8
  %64 = getelementptr inbounds i8, ptr %63, i64 0
  store i8 0, ptr %64, align 1
  %65 = load ptr, ptr %6, align 8
  %66 = getelementptr inbounds i8, ptr %65, i64 1
  store i8 1, ptr %66, align 1
  %67 = load ptr, ptr %7, align 8
  store ptr %67, ptr %3, align 8
  br label %68

68:                                               ; preds = %62, %58, %26, %14
  %69 = load ptr, ptr %3, align 8
  ret ptr %69
}

; Function Attrs: nounwind uwtable
define internal ptr @sljit_emit_cmp(ptr noundef %0, i32 noundef %1, i32 noundef %2, i64 noundef %3, i32 noundef %4, i64 noundef %5) #0 {
  %7 = alloca ptr, align 8
  %8 = alloca ptr, align 8
  %9 = alloca i32, align 4
  %10 = alloca i32, align 4
  %11 = alloca i64, align 8
  %12 = alloca i32, align 4
  %13 = alloca i64, align 8
  %14 = alloca i32, align 4
  %15 = alloca i32, align 4
  %16 = alloca i32, align 4
  %17 = alloca i64, align 8
  store ptr %0, ptr %8, align 8
  store i32 %1, ptr %9, align 4
  store i32 %2, ptr %10, align 4
  store i64 %3, ptr %11, align 8
  store i32 %4, ptr %12, align 4
  store i64 %5, ptr %13, align 8
  br label %18

18:                                               ; preds = %6
  %19 = load ptr, ptr %8, align 8
  %20 = getelementptr inbounds %struct.sljit_compiler, ptr %19, i32 0, i32 0
  %21 = load i32, ptr %20, align 8
  %22 = sext i32 %21 to i64
  %23 = icmp ne i64 %22, 0
  br i1 %23, label %24, label %25

24:                                               ; preds = %18
  store ptr null, ptr %7, align 8
  br label %92

25:                                               ; preds = %18
  br label %26

26:                                               ; preds = %25
  %27 = load i32, ptr %9, align 4
  %28 = and i32 %27, 255
  store i32 %28, ptr %16, align 4
  %29 = load i32, ptr %10, align 4
  %30 = icmp eq i32 %29, 127
  br i1 %30, label %31, label %34

31:                                               ; preds = %26
  %32 = load i32, ptr %12, align 4
  %33 = icmp ne i32 %32, 127
  br label %34

34:                                               ; preds = %31, %26
  %35 = phi i1 [ false, %26 ], [ %33, %31 ]
  %36 = zext i1 %35 to i32
  %37 = sext i32 %36 to i64
  %38 = icmp ne i64 %37, 0
  br i1 %38, label %39, label %60

39:                                               ; preds = %34
  %40 = load i32, ptr %16, align 4
  switch i32 %40, label %49 [
    i32 2, label %41
    i32 3, label %42
    i32 4, label %43
    i32 5, label %44
    i32 6, label %45
    i32 7, label %46
    i32 8, label %47
    i32 9, label %48
  ]

41:                                               ; preds = %39
  store i32 4, ptr %16, align 4
  br label %49

42:                                               ; preds = %39
  store i32 5, ptr %16, align 4
  br label %49

43:                                               ; preds = %39
  store i32 2, ptr %16, align 4
  br label %49

44:                                               ; preds = %39
  store i32 3, ptr %16, align 4
  br label %49

45:                                               ; preds = %39
  store i32 8, ptr %16, align 4
  br label %49

46:                                               ; preds = %39
  store i32 9, ptr %16, align 4
  br label %49

47:                                               ; preds = %39
  store i32 6, ptr %16, align 4
  br label %49

48:                                               ; preds = %39
  store i32 7, ptr %16, align 4
  br label %49

49:                                               ; preds = %48, %47, %46, %45, %44, %43, %42, %41, %39
  %50 = load i32, ptr %16, align 4
  %51 = load i32, ptr %9, align 4
  %52 = and i32 %51, 4352
  %53 = or i32 %50, %52
  store i32 %53, ptr %9, align 4
  %54 = load i32, ptr %10, align 4
  store i32 %54, ptr %15, align 4
  %55 = load i32, ptr %12, align 4
  store i32 %55, ptr %10, align 4
  %56 = load i32, ptr %15, align 4
  store i32 %56, ptr %12, align 4
  %57 = load i64, ptr %11, align 8
  store i64 %57, ptr %17, align 8
  %58 = load i64, ptr %13, align 8
  store i64 %58, ptr %11, align 8
  %59 = load i64, ptr %17, align 8
  store i64 %59, ptr %13, align 8
  br label %60

60:                                               ; preds = %49, %34
  %61 = load i32, ptr %16, align 4
  %62 = icmp sle i32 %61, 1
  br i1 %62, label %63, label %64

63:                                               ; preds = %60
  store i32 512, ptr %14, align 4
  br label %68

64:                                               ; preds = %60
  %65 = load i32, ptr %16, align 4
  %66 = and i32 %65, 254
  %67 = shl i32 %66, 10
  store i32 %67, ptr %14, align 4
  br label %68

68:                                               ; preds = %64, %63
  br label %69

69:                                               ; preds = %68
  %70 = load ptr, ptr %8, align 8
  %71 = load i32, ptr %14, align 4
  %72 = or i32 66, %71
  %73 = load i32, ptr %9, align 4
  %74 = and i32 %73, 256
  %75 = or i32 %72, %74
  %76 = load i32, ptr %10, align 4
  %77 = load i64, ptr %11, align 8
  %78 = load i32, ptr %12, align 4
  %79 = load i64, ptr %13, align 8
  %80 = call i32 @sljit_emit_op2u(ptr noundef %70, i32 noundef %75, i32 noundef %76, i64 noundef %77, i32 noundef %78, i64 noundef %79)
  %81 = sext i32 %80 to i64
  %82 = icmp ne i64 %81, 0
  br i1 %82, label %83, label %84

83:                                               ; preds = %69
  store ptr null, ptr %7, align 8
  br label %92

84:                                               ; preds = %69
  br label %85

85:                                               ; preds = %84
  %86 = load ptr, ptr %8, align 8
  %87 = load i32, ptr %16, align 4
  %88 = load i32, ptr %9, align 4
  %89 = and i32 %88, 4352
  %90 = or i32 %87, %89
  %91 = call ptr @sljit_emit_jump(ptr noundef %86, i32 noundef %90)
  store ptr %91, ptr %7, align 8
  br label %92

92:                                               ; preds = %85, %83, %24
  %93 = load ptr, ptr %7, align 8
  ret ptr %93
}