; Function Attrs: nounwind uwtable
define internal fastcc noundef ptr @sljit_emit_cmp(ptr noundef %0, i32 noundef %1, i32 noundef %2, i64 noundef %3, i32 noundef %4, i64 noundef %5) unnamed_addr #0 {
  %7 = load i32, ptr %0, align 8
  %.not = icmp eq i32 %7, 0
  br i1 %.not, label %8, label %sljit_emit_jump.exit

8:                                                ; preds = %6
  %9 = and i32 %1, 255
  %10 = icmp eq i32 %2, 127
  %11 = icmp ne i32 %4, 127
  %12 = and i1 %10, %11
  br i1 %12, label %13, label %19

13:                                               ; preds = %8
  %trunc = trunc i32 %1 to i8
  %switch.tableidx = add i8 %trunc, -2
  %14 = icmp ult i8 %switch.tableidx, 8
  br i1 %14, label %switch.lookup, label %19

switch.lookup:                                    ; preds = %13
  %15 = zext nneg i8 %switch.tableidx to i64
  %switch.gep = getelementptr inbounds [8 x i32], ptr @switch.table.sljit_emit_cmp, i64 0, i64 %15
  %switch.load = load i32, ptr %switch.gep, align 4
  %16 = shl nuw nsw i32 %switch.load, 10
  %17 = and i32 %16, 14336
  %18 = or disjoint i32 %17, 66
  br label %24

19:                                               ; preds = %13, %8
  %.031 = phi i32 [ %2, %8 ], [ %4, %13 ]
  %.030 = phi i64 [ %3, %8 ], [ %5, %13 ]
  %.029 = phi i32 [ %4, %8 ], [ 127, %13 ]
  %.028 = phi i64 [ %5, %8 ], [ %3, %13 ]
  %20 = icmp ult i32 %9, 2
  %21 = shl nuw nsw i32 %9, 10
  %22 = and i32 %21, 260096
  %23 = or disjoint i32 %22, 66
  %spec.select = select i1 %20, i32 578, i32 %23
  br label %24

24:                                               ; preds = %19, %switch.lookup
  %.144 = phi i32 [ %switch.load, %switch.lookup ], [ %9, %19 ]
  %.02843 = phi i64 [ %3, %switch.lookup ], [ %.028, %19 ]
  %.02942 = phi i32 [ 127, %switch.lookup ], [ %.029, %19 ]
  %.03041 = phi i64 [ %5, %switch.lookup ], [ %.030, %19 ]
  %.03140 = phi i32 [ %4, %switch.lookup ], [ %.031, %19 ]
  %25 = phi i32 [ %18, %switch.lookup ], [ %spec.select, %19 ]
  %26 = tail call fastcc i32 @sljit_emit_op2u(ptr noundef nonnull %0, i32 noundef %25, i32 noundef %.03140, i64 noundef %.03041, i32 noundef %.02942, i64 noundef %.02843)
  %.not34 = icmp eq i32 %26, 0
  br i1 %.not34, label %27, label %sljit_emit_jump.exit

27:                                               ; preds = %24
  %28 = load i32, ptr %0, align 8
  %.not.i = icmp eq i32 %28, 0
  br i1 %.not.i, label %29, label %sljit_emit_jump.exit

29:                                               ; preds = %27
  %30 = getelementptr inbounds i8, ptr %0, i64 96
  %31 = load ptr, ptr %30, align 8
  %32 = getelementptr inbounds i8, ptr %31, i64 8
  %33 = load i64, ptr %32, align 8
  %34 = add i64 %33, 32
  %35 = icmp ult i64 %34, 4081
  br i1 %35, label %36, label %39

36:                                               ; preds = %29
  %37 = getelementptr inbounds i8, ptr %31, i64 16
  %38 = getelementptr inbounds i8, ptr %37, i64 %33
  store i64 %34, ptr %32, align 8
  br label %49

39:                                               ; preds = %29
  %40 = getelementptr inbounds i8, ptr %0, i64 72
  %41 = load ptr, ptr %40, align 8
  %.val.i.i = load ptr, ptr %41, align 8
  %42 = getelementptr i8, ptr %41, i64 16
  %.val18.i.i = load ptr, ptr %42, align 8
  %43 = tail call ptr %.val.i.i(i64 noundef 4096, ptr noundef %.val18.i.i) #18
  %.not.i.i = icmp eq ptr %43, null
  br i1 %.not.i.i, label %48, label %44

44:                                               ; preds = %39
  %45 = load ptr, ptr %30, align 8
  store ptr %45, ptr %43, align 8
  store ptr %43, ptr %30, align 8
  %46 = getelementptr inbounds i8, ptr %43, i64 8
  store i64 32, ptr %46, align 8
  %47 = getelementptr inbounds i8, ptr %43, i64 16
  br label %49

48:                                               ; preds = %39
  store i32 2, ptr %0, align 8
  br label %sljit_emit_jump.exit

49:                                               ; preds = %44, %36
  %.0.i.ph.i = phi ptr [ %47, %44 ], [ %38, %36 ]
  %50 = shl nuw nsw i32 %.144, 13
  store ptr null, ptr %.0.i.ph.i, align 8
  %51 = zext nneg i32 %50 to i64
  %52 = getelementptr inbounds i8, ptr %.0.i.ph.i, i64 16
  store i64 %51, ptr %52, align 8
  %53 = getelementptr inbounds i8, ptr %0, i64 48
  %54 = load ptr, ptr %53, align 8
  %.not.i19.i = icmp eq ptr %54, null
  %55 = getelementptr inbounds i8, ptr %0, i64 16
  %.sink.i.i = select i1 %.not.i19.i, ptr %55, ptr %54
  store ptr %.0.i.ph.i, ptr %.sink.i.i, align 8
  store ptr %.0.i.ph.i, ptr %53, align 8
  %56 = icmp ugt i32 %.144, 35
  %57 = select i1 %56, i64 13, i64 15
  %58 = getelementptr inbounds i8, ptr %0, i64 128
  %59 = load i64, ptr %58, align 8
  %60 = add i64 %59, %57
  store i64 %60, ptr %58, align 8
  %61 = getelementptr inbounds i8, ptr %0, i64 88
  %62 = load ptr, ptr %61, align 8
  %63 = getelementptr inbounds i8, ptr %62, i64 8
  %64 = load i64, ptr %63, align 8
  %65 = add i64 %64, 2
  %66 = icmp ult i64 %65, 4081
  br i1 %66, label %67, label %70

67:                                               ; preds = %49
  %68 = getelementptr inbounds i8, ptr %62, i64 16
  %69 = getelementptr inbounds i8, ptr %68, i64 %64
  store i64 %65, ptr %63, align 8
  br label %80

70:                                               ; preds = %49
  %71 = getelementptr inbounds i8, ptr %0, i64 72
  %72 = load ptr, ptr %71, align 8
  %.val.i20.i = load ptr, ptr %72, align 8
  %73 = getelementptr i8, ptr %72, i64 16
  %.val18.i21.i = load ptr, ptr %73, align 8
  %74 = tail call ptr %.val.i20.i(i64 noundef 4096, ptr noundef %.val18.i21.i) #18
  %.not.i22.i = icmp eq ptr %74, null
  br i1 %.not.i22.i, label %79, label %75

75:                                               ; preds = %70
  %76 = load ptr, ptr %61, align 8
  store ptr %76, ptr %74, align 8
  store ptr %74, ptr %61, align 8
  %77 = getelementptr inbounds i8, ptr %74, i64 8
  store i64 2, ptr %77, align 8
  %78 = getelementptr inbounds i8, ptr %74, i64 16
  br label %80

79:                                               ; preds = %70
  store i32 2, ptr %0, align 8
  br label %sljit_emit_jump.exit

80:                                               ; preds = %75, %67
  %.0.i23.ph.i = phi ptr [ %78, %75 ], [ %69, %67 ]
  store i8 0, ptr %.0.i23.ph.i, align 1
  %81 = getelementptr inbounds i8, ptr %.0.i23.ph.i, i64 1
  store i8 1, ptr %81, align 1
  br label %sljit_emit_jump.exit

sljit_emit_jump.exit:                             ; preds = %80, %79, %48, %27, %24, %6
  %.0 = phi ptr [ null, %6 ], [ null, %24 ], [ null, %48 ], [ null, %79 ], [ %.0.i.ph.i, %80 ], [ null, %27 ]
  ret ptr %.0
}